; Function Attrs: mustprogress uwtable
define noundef double @_ZNK8QuantLib16SabrSmileSection12varianceImplEd(ptr noundef nonnull align 8 dereferenceable(120) %this, double noundef %strike) unnamed_addr #6 align 2 {
entry:
  %vtable = load ptr, ptr %this, align 8, !tbaa !35
  %vfn = getelementptr inbounds i8, ptr %vtable, i64 64
  %0 = load ptr, ptr %vfn, align 8
  %call = tail call noundef double %0(ptr noundef nonnull align 8 dereferenceable(72) %this)
  %sub = fsub double 1.000000e-05, %call
  %cmp.i = fcmp olt double %sub, %strike
  %.sroa.speculated = select i1 %cmp.i, double %strike, double %sub
  %forward_ = getelementptr inbounds nuw i8, ptr %this, i64 104
  %1 = load double, ptr %forward_, align 8, !tbaa !39
  %vtable3 = load ptr, ptr %this, align 8, !tbaa !35
  %vfn4 = getelementptr inbounds i8, ptr %vtable3, i64 80
  %2 = load ptr, ptr %vfn4, align 8
  %call5 = tail call noundef double %2(ptr noundef nonnull align 8 dereferenceable(72) %this)
  %alpha_ = getelementptr inbounds nuw i8, ptr %this, i64 72
  %3 = load double, ptr %alpha_, align 8, !tbaa !51
  %beta_ = getelementptr inbounds nuw i8, ptr %this, i64 80
  %4 = load double, ptr %beta_, align 8, !tbaa !52
  %nu_ = getelementptr inbounds nuw i8, ptr %this, i64 88
  %5 = load double, ptr %nu_, align 8, !tbaa !53
  %rho_ = getelementptr inbounds nuw i8, ptr %this, i64 96
  %6 = load double, ptr %rho_, align 8, !tbaa !54
  %shift_ = getelementptr inbounds nuw i8, ptr %this, i64 112
  %7 = load double, ptr %shift_, align 8, !tbaa !47
  %vtable6 = load ptr, ptr %this, align 8, !tbaa !35
  %vfn7 = getelementptr inbounds i8, ptr %vtable6, i64 56
  %8 = load ptr, ptr %vfn7, align 8
  %call8 = tail call noundef i32 %8(ptr noundef nonnull align 8 dereferenceable(72) %this)
  %call9 = tail call noundef double @_ZN8QuantLib27unsafeShiftedSabrVolatilityEddddddddNS_14VolatilityTypeE(double noundef %.sroa.speculated, double noundef %1, double noundef %call5, double noundef %3, double noundef %4, double noundef %5, double noundef %6, double noundef %7, i32 noundef %call8)
  %mul = fmul double %call9, %call9
  %vtable10 = load ptr, ptr %this, align 8, !tbaa !35
  %vfn11 = getelementptr inbounds i8, ptr %vtable10, i64 80
  %9 = load ptr, ptr %vfn11, align 8
  %call12 = tail call noundef double %9(ptr noundef nonnull align 8 dereferenceable(72) %this)
  %mul13 = fmul double %mul, %call12
  ret double %mul13
}